target datalayout = "e-m:e-p270:32:32-p271:32:32-p272:64:64-i64:64-i128:128-f80:128-n8:16:32:64-S128"
target triple = "x86_64-pc-linux-gnu"

%struct.sgraph = type { i32, i32, i32, i32, ptr, ptr }
%struct.snode = type { i32, i32, ptr, ptr, i16, i16, [2 x ptr], ptr, i32, i8 }

; Function Attrs: nounwind uwtable
define ptr @createSNode(ptr noundef %0) #0 {
  %2 = alloca ptr, align 8
  %3 = alloca ptr, align 8
  store ptr %0, ptr %2, align 8, !tbaa !3
  call void @llvm.lifetime.start.p0(i64 8, ptr %3) #8
  %4 = load ptr, ptr %2, align 8, !tbaa !3
  %5 = getelementptr inbounds nuw %struct.sgraph, ptr %4, i32 0, i32 4
  %6 = load ptr, ptr %5, align 8, !tbaa !16
  %7 = load ptr, ptr %2, align 8, !tbaa !3
  %8 = getelementptr inbounds nuw %struct.sgraph, ptr %7, i32 0, i32 0
  %9 = load i32, ptr %8, align 8, !tbaa !7
  %10 = sext i32 %9 to i64
  %11 = getelementptr inbounds %struct.snode, ptr %6, i64 %10
  store ptr %11, ptr %3, align 8, !tbaa !36
  %12 = load ptr, ptr %2, align 8, !tbaa !3
  %13 = getelementptr inbounds nuw %struct.sgraph, ptr %12, i32 0, i32 0
  %14 = load i32, ptr %13, align 8, !tbaa !7
  %15 = load ptr, ptr %3, align 8, !tbaa !36
  %16 = getelementptr inbounds nuw %struct.snode, ptr %15, i32 0, i32 8
  store i32 %14, ptr %16, align 8, !tbaa !37
  %17 = load ptr, ptr %2, align 8, !tbaa !3
  %18 = getelementptr inbounds nuw %struct.sgraph, ptr %17, i32 0, i32 0
  %19 = load i32, ptr %18, align 8, !tbaa !7
  %20 = add nsw i32 %19, 1
  store i32 %20, ptr %18, align 8, !tbaa !7
  %21 = load ptr, ptr %3, align 8, !tbaa !36
  call void @llvm.lifetime.end.p0(i64 8, ptr %3) #8
  ret ptr %21
}