; Function Attrs: mustprogress nofree norecurse nosync nounwind willreturn memory(write, argmem: readwrite, inaccessiblemem: none) uwtable
define ptr @createSNode(ptr noundef captures(none) %0) local_unnamed_addr #2 {
  %2 = getelementptr inbounds nuw i8, ptr %0, i64 16
  %3 = load ptr, ptr %2, align 8, !tbaa !14
  %4 = load i32, ptr %0, align 8, !tbaa !3
  %5 = sext i32 %4 to i64
  %6 = getelementptr inbounds %struct.snode, ptr %3, i64 %5
  %7 = getelementptr inbounds nuw i8, ptr %6, i64 56
  store i32 %4, ptr %7, align 8, !tbaa !31
  %8 = add nsw i32 %4, 1
  store i32 %8, ptr %0, align 8, !tbaa !3
  ret ptr %6
}